(dp1
S'doc'
p2
(lp3
S'/home/harsh/Code/TAGFS/sample/dir2/asr.doc'
p4
asS'ofc'
p5
(lp6
S'/home/harsh/Code/TAGFS/sample/dir1/hello.ofc'
p7
asS'avi'
p8
(lp9
S'/home/harsh/Code/TAGFS/sample/test.avi'
p10
asS'jpg'
p11
(lp12
S'/home/harsh/Code/TAGFS/sample/people.jpg'
p13
asS'ppt'
p14
(lp15
S'/home/harsh/Code/TAGFS/sample/presentation2.ppt'
p16
aS'/home/harsh/Code/TAGFS/sample/dir2/prism.ppt'
p17
aS'/home/harsh/Code/TAGFS/sample/dir1/mtech.ppt'
p18
as.