(dp1
S'ofc'
p2
(lp3
S'sample/dir1\\hello.ofc'
p4
asS'c'
(lp5
S'sample/example.c'
p6
asS'doc'
p7
(lp8
S'sample/dir2\\asr.doc'
p9
asS'jpg'
p10
(lp11
S'sample/people.jpg'
p12
asS'avi'
p13
(lp14
S'sample/test.avi'
p15
asS'ppt'
p16
(lp17
S'sample/presentation2.ppt'
p18
aS'sample/dir1\\mtech.ppt'
p19
aS'sample/dir2\\prism.ppt'
p20
as.